; Function Attrs: mustprogress uwtable
define hidden void @_ZN2cv8tinyxml210XMLPrinter8PushTextEb(ptr noundef nonnull align 8 dereferenceable(312) initializes((132, 136)) %0, i1 noundef zeroext %1) local_unnamed_addr #4 align 2 {
  %3 = alloca [200 x i8], align 16
  call void @llvm.lifetime.start.p0(i64 200, ptr nonnull %3) #24
  %4 = zext i1 %1 to i32
  %5 = call i32 (ptr, i64, ptr, ...) @snprintf(ptr noundef nonnull dereferenceable(1) %3, i64 noundef 200, ptr noundef nonnull @.str, i32 noundef %4) #24
  %6 = getelementptr inbounds nuw i8, ptr %0, i64 128
  %7 = load i32, ptr %6, align 8, !tbaa !165
  %8 = add nsw i32 %7, -1
  %9 = getelementptr inbounds nuw i8, ptr %0, i64 132
  store i32 %8, ptr %9, align 4, !tbaa !166
  %10 = getelementptr inbounds nuw i8, ptr %0, i64 8
  %11 = load i8, ptr %10, align 8, !tbaa !153, !range !119, !noundef !120
  %12 = trunc nuw i8 %11 to i1
  br i1 %12, label %13, label %_ZN2cv8tinyxml210XMLPrinter8PushTextEPKcb.exit

13:                                               ; preds = %2
  store i8 0, ptr %10, align 8, !tbaa !153
  tail call void (ptr, ptr, ...) @_ZN2cv8tinyxml210XMLPrinter5PrintEPKcz(ptr noundef nonnull align 8 dereferenceable(312) %0, ptr noundef nonnull @.str.16)
  br label %_ZN2cv8tinyxml210XMLPrinter8PushTextEPKcb.exit

_ZN2cv8tinyxml210XMLPrinter8PushTextEPKcb.exit:   ; preds = %2, %13
  %14 = getelementptr inbounds nuw i8, ptr %0, i64 202
  %15 = getelementptr inbounds nuw i8, ptr %0, i64 136
  %16 = load i8, ptr %15, align 8, !tbaa !167, !range !119, !noundef !120
  %17 = trunc nuw i8 %16 to i1
  br i1 %17, label %.preheader33.i, label %.loopexit34.thread.i

.preheader33.i:                                   ; preds = %_ZN2cv8tinyxml210XMLPrinter8PushTextEPKcb.exit
  %18 = load i8, ptr %3, align 16, !tbaa !12
  %.not37.i = icmp eq i8 %18, 0
  br i1 %.not37.i, label %.loopexit34.i, label %.lr.ph40.i

.lr.ph40.i:                                       ; preds = %.preheader33.i, %40
  %19 = phi i8 [ %42, %40 ], [ %18, %.preheader33.i ]
  %.139.i = phi ptr [ %.2.i, %40 ], [ %3, %.preheader33.i ]
  %.12338.i = phi ptr [ %41, %40 ], [ %3, %.preheader33.i ]
  %or.cond.i = icmp ult i8 %19, 64
  br i1 %or.cond.i, label %20, label %40

20:                                               ; preds = %.lr.ph40.i
  %21 = zext nneg i8 %19 to i64
  %22 = getelementptr inbounds nuw i8, ptr %14, i64 %21
  %23 = load i8, ptr %22, align 1, !tbaa !30, !range !119, !noundef !120
  %24 = trunc nuw i8 %23 to i1
  br i1 %24, label %.preheader32.i, label %40

.preheader32.i:                                   ; preds = %20
  %25 = icmp ult ptr %.139.i, %.12338.i
  br i1 %25, label %.lr.ph.i, label %.preheader.i

.preheader.loopexit.i:                            ; preds = %.lr.ph.i
  %.pre.i = load i8, ptr %.12338.i, align 1, !tbaa !12
  br label %.preheader.i

.preheader.i:                                     ; preds = %.preheader.loopexit.i, %.preheader32.i
  %26 = phi i8 [ %19, %.preheader32.i ], [ %.pre.i, %.preheader.loopexit.i ]
  %.3.lcssa.i = phi ptr [ %.139.i, %.preheader32.i ], [ %29, %.preheader.loopexit.i ]
  br label %32

.lr.ph.i:                                         ; preds = %.preheader32.i, %.lr.ph.i
  %.335.i = phi ptr [ %29, %.lr.ph.i ], [ %.139.i, %.preheader32.i ]
  %27 = load i8, ptr %.335.i, align 1, !tbaa !12
  %28 = sext i8 %27 to i32
  call void (ptr, ptr, ...) @_ZN2cv8tinyxml210XMLPrinter5PrintEPKcz(ptr noundef nonnull align 8 dereferenceable(312) %0, ptr noundef nonnull @.str.23, i32 noundef %28)
  %29 = getelementptr inbounds nuw i8, ptr %.335.i, i64 1
  %30 = icmp ult ptr %29, %.12338.i
  br i1 %30, label %.lr.ph.i, label %.preheader.loopexit.i, !llvm.loop !175

31:                                               ; preds = %32
  %indvars.iv.next.i = add nuw nsw i64 %indvars.iv.i, 1
  %exitcond.not.i = icmp eq i64 %indvars.iv.next.i, 5
  br i1 %exitcond.not.i, label %.loopexit.i, label %32, !llvm.loop !176

32:                                               ; preds = %31, %.preheader.i
  %indvars.iv.i = phi i64 [ 0, %.preheader.i ], [ %indvars.iv.next.i, %31 ]
  %33 = getelementptr inbounds nuw [5 x %"struct.cv::tinyxml2::Entity"], ptr @_ZN2cv8tinyxml2L8entitiesE, i64 0, i64 %indvars.iv.i
  %34 = getelementptr inbounds nuw i8, ptr %33, i64 12
  %35 = load i8, ptr %34, align 4, !tbaa !23
  %36 = icmp eq i8 %35, %26
  br i1 %36, label %37, label %31

37:                                               ; preds = %32
  %38 = load ptr, ptr %33, align 16, !tbaa !20
  call void (ptr, ptr, ...) @_ZN2cv8tinyxml210XMLPrinter5PrintEPKcz(ptr noundef nonnull align 8 dereferenceable(312) %0, ptr noundef nonnull @.str.24, ptr noundef %38)
  br label %.loopexit.i

.loopexit.i:                                      ; preds = %31, %37
  %39 = getelementptr inbounds nuw i8, ptr %.3.lcssa.i, i64 1
  br label %40

40:                                               ; preds = %.loopexit.i, %20, %.lr.ph40.i
  %.2.i = phi ptr [ %39, %.loopexit.i ], [ %.139.i, %20 ], [ %.139.i, %.lr.ph40.i ]
  %41 = getelementptr inbounds nuw i8, ptr %.12338.i, i64 1
  %42 = load i8, ptr %41, align 1, !tbaa !12
  %.not.i = icmp eq i8 %42, 0
  br i1 %.not.i, label %.loopexit34.loopexit.i, label %.lr.ph40.i, !llvm.loop !177

.loopexit34.loopexit.i:                           ; preds = %40
  %.pre47.i = load i8, ptr %15, align 8, !tbaa !167, !range !119
  %.pre48.i = trunc nuw i8 %.pre47.i to i1
  br label %.loopexit34.i

.loopexit34.i:                                    ; preds = %.loopexit34.loopexit.i, %.preheader33.i
  %.pre-phi.i = phi i1 [ %.pre48.i, %.loopexit34.loopexit.i ], [ true, %.preheader33.i ]
  %.022.i = phi ptr [ %41, %.loopexit34.loopexit.i ], [ %3, %.preheader33.i ]
  %.021.i = phi ptr [ %.2.i, %.loopexit34.loopexit.i ], [ %3, %.preheader33.i ]
  %43 = ptrtoint ptr %.022.i to i64
  %44 = ptrtoint ptr %.021.i to i64
  %45 = sub i64 %43, %44
  %46 = icmp slt i64 %45, 1
  %or.cond30.not.i = select i1 %.pre-phi.i, i1 %46, i1 false
  br i1 %or.cond30.not.i, label %_ZN2cv8tinyxml210XMLPrinter11PrintStringEPKcb.exit, label %.loopexit34.thread.i

.loopexit34.thread.i:                             ; preds = %.loopexit34.i, %_ZN2cv8tinyxml210XMLPrinter8PushTextEPKcb.exit
  %.02153.i = phi ptr [ %.021.i, %.loopexit34.i ], [ %3, %_ZN2cv8tinyxml210XMLPrinter8PushTextEPKcb.exit ]
  call void (ptr, ptr, ...) @_ZN2cv8tinyxml210XMLPrinter5PrintEPKcz(ptr noundef nonnull align 8 dereferenceable(312) %0, ptr noundef nonnull @.str.20, ptr noundef %.02153.i)
  br label %_ZN2cv8tinyxml210XMLPrinter11PrintStringEPKcb.exit

_ZN2cv8tinyxml210XMLPrinter11PrintStringEPKcb.exit: ; preds = %.loopexit34.i, %.loopexit34.thread.i
  call void @llvm.lifetime.end.p0(i64 200, ptr nonnull %3) #24
  ret void
}